_ZN4llvm7IRMover9getModuleEv|llvm::IRMover::getModule
_ZNK4llvm9IRBuilder19AddFPMathAttributesEPNS_11InstructionEPNS_6MDNodeENS_13FastMathFlagsE|llvm::IRBuilder::AddFPMathAttributes
_ZN4llvm9IRBuilder10CreateAShrEPNS_5ValueES2_RKNS_5TwineEb|llvm::IRBuilder::CreateAShr
_ZN4llvm9IRBuilder9CreateAddEPNS_5ValueES2_RKNS_5TwineEbb|llvm::IRBuilder::CreateAdd
_ZN4llvm9IRBuilder19CreateAddrSpaceCastEPNS_5ValueEPNS_4TypeERKNS_5TwineE|llvm::IRBuilder::CreateAddrSpaceCast
_ZN4llvm9IRBuilder18CreateAggregateRetEPKPNS_5ValueEj|llvm::IRBuilder::CreateAggregateRet
_ZN4llvm9IRBuilder17CreateAlignedLoadEPNS_5ValueEjPKc|llvm::IRBuilder::CreateAlignedLoad
_ZN4llvm9IRBuilder18CreateAlignedStoreEPNS_5ValueES2_jb|llvm::IRBuilder::CreateAlignedStore
_ZN4llvm9IRBuilder25CreateAlignmentAssumptionERKNS_10DataLayoutEPNS_5ValueEjS5_|llvm::IRBuilder::CreateAlignmentAssumption
_ZN4llvm9IRBuilder31CreateAlignmentAssumptionHelperERKNS_10DataLayoutEPNS_5ValueES5_PNS_4TypeES5_|llvm::IRBuilder::CreateAlignmentAssumptionHelper
_ZN4llvm9IRBuilder12CreateAllocaEPNS_4TypeEjPNS_5ValueERKNS_5TwineE|llvm::IRBuilder::CreateAlloca
_ZN4llvm9IRBuilder9CreateAndEPNS_5ValueES2_RKNS_5TwineE|llvm::IRBuilder::CreateAnd
_ZN4llvm9IRBuilder19CreateAtomicCmpXchgEPNS_5ValueES2_S2_NS_14AtomicOrderingES3_h|llvm::IRBuilder::CreateAtomicCmpXchg
_ZN4llvm9IRBuilder15CreateAtomicRMWENS_13AtomicRMWInst5BinOpEPNS_5ValueES4_NS_14AtomicOrderingEh|llvm::IRBuilder::CreateAtomicRMW
_ZN4llvm9IRBuilder11CreateBinOpENS_11Instruction9BinaryOpsEPNS_5ValueES4_RKNS_5TwineEPNS_6MDNodeE|llvm::IRBuilder::CreateBinOp
_ZN4llvm9IRBuilder13CreateBitCastEPNS_5ValueEPNS_4TypeERKNS_5TwineE|llvm::IRBuilder::CreateBitCast
_ZN4llvm9IRBuilder22CreateBitOrPointerCastEPNS_5ValueEPNS_4TypeERKNS_5TwineE|llvm::IRBuilder::CreateBitOrPointerCast
_ZN4llvm9IRBuilder8CreateBrEPNS_10BasicBlockE|llvm::IRBuilder::CreateBr
_ZN4llvm9IRBuilder10CreateCallEPNS_5ValueENS_8ArrayRefIS2_EERKNS_5TwineEPNS_6MDNodeE|llvm::IRBuilder::CreateCall
_ZN4llvm9IRBuilder10CreateCastENS_11Instruction7CastOpsEPNS_5ValueEPNS_4TypeERKNS_5TwineE|llvm::IRBuilder::CreateCast
_ZN4llvm9IRBuilder14CreateCatchPadEPNS_5ValueENS_8ArrayRefIS2_EERKNS_5TwineE|llvm::IRBuilder::CreateCatchPad
_ZN4llvm9IRBuilder14CreateCatchRetEPNS_12CatchPadInstEPNS_10BasicBlockE|llvm::IRBuilder::CreateCatchRet
_ZN4llvm9IRBuilder17CreateCatchSwitchEPNS_5ValueEPNS_10BasicBlockEjRKNS_5TwineE|llvm::IRBuilder::CreateCatchSwitch
_ZN4llvm9IRBuilder16CreateCleanupPadEPNS_5ValueENS_8ArrayRefIS2_EERKNS_5TwineE|llvm::IRBuilder::CreateCleanupPad
_ZN4llvm9IRBuilder16CreateCleanupRetEPNS_14CleanupPadInstEPNS_10BasicBlockE|llvm::IRBuilder::CreateCleanupRet
_ZN4llvm9IRBuilder12CreateCondBrEPNS_5ValueEPNS_10BasicBlockES4_PNS_6MDNodeES6_|llvm::IRBuilder::CreateCondBr
_ZN4llvm9IRBuilder18CreateConstGEP1_32EPNS_5ValueEjRKNS_5TwineE|llvm::IRBuilder::CreateConstGEP1_32
_ZN4llvm9IRBuilder18CreateConstGEP1_64EPNS_5ValueEmRKNS_5TwineE|llvm::IRBuilder::CreateConstGEP1_64
_ZN4llvm9IRBuilder18CreateConstGEP2_32EPNS_4TypeEPNS_5ValueEjjRKNS_5TwineE|llvm::IRBuilder::CreateConstGEP2_32
_ZN4llvm9IRBuilder18CreateConstGEP2_64EPNS_5ValueEmmRKNS_5TwineE|llvm::IRBuilder::CreateConstGEP2_64
_ZN4llvm9IRBuilder26CreateConstInBoundsGEP1_32EPNS_4TypeEPNS_5ValueEjRKNS_5TwineE|llvm::IRBuilder::CreateConstInBoundsGEP1_32
_ZN4llvm9IRBuilder26CreateConstInBoundsGEP1_64EPNS_5ValueEmRKNS_5TwineE|llvm::IRBuilder::CreateConstInBoundsGEP1_64
_ZN4llvm9IRBuilder26CreateConstInBoundsGEP2_32EPNS_4TypeEPNS_5ValueEjjRKNS_5TwineE|llvm::IRBuilder::CreateConstInBoundsGEP2_32
_ZN4llvm9IRBuilder26CreateConstInBoundsGEP2_64EPNS_5ValueEmmRKNS_5TwineE|llvm::IRBuilder::CreateConstInBoundsGEP2_64
_ZN4llvm9IRBuilder15CreateExactSDivEPNS_5ValueES2_RKNS_5TwineE|llvm::IRBuilder::CreateExactSDiv
_ZN4llvm9IRBuilder15CreateExactUDivEPNS_5ValueES2_RKNS_5TwineE|llvm::IRBuilder::CreateExactUDiv
_ZN4llvm9IRBuilder20CreateExtractElementEPNS_5ValueES2_RKNS_5TwineE|llvm::IRBuilder::CreateExtractElement
_ZN4llvm9IRBuilder20CreateExtractIntegerERKNS_10DataLayoutEPNS_5ValueEPNS_11IntegerTypeEmRKNS_5TwineE|llvm::IRBuilder::CreateExtractInteger
_ZN4llvm9IRBuilder18CreateExtractValueEPNS_5ValueENS_8ArrayRefIjEERKNS_5TwineE|llvm::IRBuilder::CreateExtractValue
_ZN4llvm9IRBuilder10CreateFAddEPNS_5ValueES2_RKNS_5TwineEPNS_6MDNodeE|llvm::IRBuilder::CreateFAdd
_ZN4llvm9IRBuilder10CreateFCmpENS_7CmpInst9PredicateEPNS_5ValueES4_RKNS_5TwineEPNS_6MDNodeE|llvm::IRBuilder::CreateFCmp
_ZN4llvm9IRBuilder13CreateFCmpOEQEPNS_5ValueES2_RKNS_5TwineEPNS_6MDNodeE|llvm::IRBuilder::CreateFCmpOEQ
_ZN4llvm9IRBuilder13CreateFCmpOGEEPNS_5ValueES2_RKNS_5TwineEPNS_6MDNodeE|llvm::IRBuilder::CreateFCmpOGE
_ZN4llvm9IRBuilder13CreateFCmpOGTEPNS_5ValueES2_RKNS_5TwineEPNS_6MDNodeE|llvm::IRBuilder::CreateFCmpOGT
_ZN4llvm9IRBuilder13CreateFCmpOLEEPNS_5ValueES2_RKNS_5TwineEPNS_6MDNodeE|llvm::IRBuilder::CreateFCmpOLE
_ZN4llvm9IRBuilder13CreateFCmpOLTEPNS_5ValueES2_RKNS_5TwineEPNS_6MDNodeE|llvm::IRBuilder::CreateFCmpOLT
_ZN4llvm9IRBuilder13CreateFCmpONEEPNS_5ValueES2_RKNS_5TwineEPNS_6MDNodeE|llvm::IRBuilder::CreateFCmpONE
_ZN4llvm9IRBuilder13CreateFCmpORDEPNS_5ValueES2_RKNS_5TwineEPNS_6MDNodeE|llvm::IRBuilder::CreateFCmpORD
_ZN4llvm9IRBuilder13CreateFCmpUEQEPNS_5ValueES2_RKNS_5TwineEPNS_6MDNodeE|llvm::IRBuilder::CreateFCmpUEQ
_ZN4llvm9IRBuilder13CreateFCmpUGEEPNS_5ValueES2_RKNS_5TwineEPNS_6MDNodeE|llvm::IRBuilder::CreateFCmpUGE
_ZN4llvm9IRBuilder13CreateFCmpUGTEPNS_5ValueES2_RKNS_5TwineEPNS_6MDNodeE|llvm::IRBuilder::CreateFCmpUGT
_ZN4llvm9IRBuilder13CreateFCmpULEEPNS_5ValueES2_RKNS_5TwineEPNS_6MDNodeE|llvm::IRBuilder::CreateFCmpULE
_ZN4llvm9IRBuilder13CreateFCmpULTEPNS_5ValueES2_RKNS_5TwineEPNS_6MDNodeE|llvm::IRBuilder::CreateFCmpULT
_ZN4llvm9IRBuilder13CreateFCmpUNEEPNS_5ValueES2_RKNS_5TwineEPNS_6MDNodeE|llvm::IRBuilder::CreateFCmpUNE
_ZN4llvm9IRBuilder13CreateFCmpUNOEPNS_5ValueES2_RKNS_5TwineEPNS_6MDNodeE|llvm::IRBuilder::CreateFCmpUNO
_ZN4llvm9IRBuilder10CreateFDivEPNS_5ValueES2_RKNS_5TwineEPNS_6MDNodeE|llvm::IRBuilder::CreateFDiv
_ZN4llvm9IRBuilder10CreateFMulEPNS_5ValueES2_RKNS_5TwineEPNS_6MDNodeE|llvm::IRBuilder::CreateFMul
_ZN4llvm9IRBuilder10CreateFNegEPNS_5ValueERKNS_5TwineEPNS_6MDNodeE|llvm::IRBuilder::CreateFNeg
_ZN4llvm9IRBuilder12CreateFPCastEPNS_5ValueEPNS_4TypeERKNS_5TwineE|llvm::IRBuilder::CreateFPCast
_ZN4llvm9IRBuilder11CreateFPExtEPNS_5ValueEPNS_4TypeERKNS_5TwineE|llvm::IRBuilder::CreateFPExt
_ZN4llvm9IRBuilder12CreateFPToSIEPNS_5ValueEPNS_4TypeERKNS_5TwineE|llvm::IRBuilder::CreateFPToSI
_ZN4llvm9IRBuilder12CreateFPToUIEPNS_5ValueEPNS_4TypeERKNS_5TwineE|llvm::IRBuilder::CreateFPToUI
_ZN4llvm9IRBuilder13CreateFPTruncEPNS_5ValueEPNS_4TypeERKNS_5TwineE|llvm::IRBuilder::CreateFPTrunc
_ZN4llvm9IRBuilder10CreateFRemEPNS_5ValueES2_RKNS_5TwineEPNS_6MDNodeE|llvm::IRBuilder::CreateFRem
_ZN4llvm9IRBuilder10CreateFSubEPNS_5ValueES2_RKNS_5TwineEPNS_6MDNodeE|llvm::IRBuilder::CreateFSub
_ZN4llvm9IRBuilder11CreateFenceENS_14AtomicOrderingEhRKNS_5TwineE|llvm::IRBuilder::CreateFence
_ZN4llvm9IRBuilder9CreateGEPEPNS_5ValueENS_8ArrayRefIS2_EERKNS_5TwineE|llvm::IRBuilder::CreateGEP
_ZN4llvm9IRBuilder21CreateGlobalStringPtrENS_9StringRefERKNS_5TwineEj|llvm::IRBuilder::CreateGlobalStringPtr
_ZN4llvm9IRBuilder10CreateICmpENS_7CmpInst9PredicateEPNS_5ValueES4_RKNS_5TwineE|llvm::IRBuilder::CreateICmp
_ZN4llvm9IRBuilder12CreateICmpEQEPNS_5ValueES2_RKNS_5TwineE|llvm::IRBuilder::CreateICmpEQ
_ZN4llvm9IRBuilder12CreateICmpNEEPNS_5ValueES2_RKNS_5TwineE|llvm::IRBuilder::CreateICmpNE
_ZN4llvm9IRBuilder13CreateICmpSGEEPNS_5ValueES2_RKNS_5TwineE|llvm::IRBuilder::CreateICmpSGE
_ZN4llvm9IRBuilder13CreateICmpSGTEPNS_5ValueES2_RKNS_5TwineE|llvm::IRBuilder::CreateICmpSGT
_ZN4llvm9IRBuilder13CreateICmpSLEEPNS_5ValueES2_RKNS_5TwineE|llvm::IRBuilder::CreateICmpSLE
_ZN4llvm9IRBuilder13CreateICmpSLTEPNS_5ValueES2_RKNS_5TwineE|llvm::IRBuilder::CreateICmpSLT
_ZN4llvm9IRBuilder13CreateICmpUGEEPNS_5ValueES2_RKNS_5TwineE|llvm::IRBuilder::CreateICmpUGE
_ZN4llvm9IRBuilder13CreateICmpUGTEPNS_5ValueES2_RKNS_5TwineE|llvm::IRBuilder::CreateICmpUGT
_ZN4llvm9IRBuilder13CreateICmpULEEPNS_5ValueES2_RKNS_5TwineE|llvm::IRBuilder::CreateICmpULE
_ZN4llvm9IRBuilder13CreateICmpULTEPNS_5ValueES2_RKNS_5TwineE|llvm::IRBuilder::CreateICmpULT
_ZN4llvm9IRBuilder17CreateInBoundsGEPEPNS_5ValueENS_8ArrayRefIS2_EERKNS_5TwineE|llvm::IRBuilder::CreateInBoundsGEP
_ZN4llvm9IRBuilder16CreateIndirectBrEPNS_5ValueEj|llvm::IRBuilder::CreateIndirectBr
_ZN4llvm9IRBuilder19CreateInsertElementEPNS_5ValueES2_S2_RKNS_5TwineE|llvm::IRBuilder::CreateInsertElement
_ZN4llvm9IRBuilder23CreateInsertNUWNSWBinOpENS_11Instruction9BinaryOpsEPNS_5ValueES4_RKNS_5TwineEbb|llvm::IRBuilder::CreateInsertNUWNSWBinOp
_ZN4llvm9IRBuilder17CreateInsertValueEPNS_5ValueES2_NS_8ArrayRefIjEERKNS_5TwineE|llvm::IRBuilder::CreateInsertValue
_ZN4llvm9IRBuilder13CreateIntCastEPNS_5ValueEPNS_4TypeEbRKNS_5TwineE|llvm::IRBuilder::CreateIntCast
_ZN4llvm9IRBuilder14CreateIntToPtrEPNS_5ValueEPNS_4TypeERKNS_5TwineE|llvm::IRBuilder::CreateIntToPtr
_ZN4llvm9IRBuilder27CreateInvariantGroupBarrierEPNS_5ValueE|llvm::IRBuilder::CreateInvariantGroupBarrier
_ZN4llvm9IRBuilder12CreateInvokeEPNS_5ValueEPNS_10BasicBlockES4_NS_8ArrayRefIS2_EERKNS_5TwineE|llvm::IRBuilder::CreateInvoke
_ZN4llvm9IRBuilder15CreateIsNotNullEPNS_5ValueERKNS_5TwineE|llvm::IRBuilder::CreateIsNotNull
_ZN4llvm9IRBuilder12CreateIsNullEPNS_5ValueERKNS_5TwineE|llvm::IRBuilder::CreateIsNull
_ZN4llvm9IRBuilder10CreateLShrEPNS_5ValueES2_RKNS_5TwineEb|llvm::IRBuilder::CreateLShr
_ZN4llvm9IRBuilder16CreateLandingPadEPNS_4TypeEjRKNS_5TwineE|llvm::IRBuilder::CreateLandingPad
_ZN4llvm9IRBuilder10CreateLoadEPNS_5ValueEPKc|llvm::IRBuilder::CreateLoad
_ZN4llvm9IRBuilder9CreateMulEPNS_5ValueES2_RKNS_5TwineEbb|llvm::IRBuilder::CreateMul
_ZN4llvm9IRBuilder12CreateNSWAddEPNS_5ValueES2_RKNS_5TwineE|llvm::IRBuilder::CreateNSWAdd
_ZN4llvm9IRBuilder12CreateNSWMulEPNS_5ValueES2_RKNS_5TwineE|llvm::IRBuilder::CreateNSWMul
_ZN4llvm9IRBuilder12CreateNSWNegEPNS_5ValueERKNS_5TwineE|llvm::IRBuilder::CreateNSWNeg
_ZN4llvm9IRBuilder12CreateNSWSubEPNS_5ValueES2_RKNS_5TwineE|llvm::IRBuilder::CreateNSWSub
_ZN4llvm9IRBuilder12CreateNUWAddEPNS_5ValueES2_RKNS_5TwineE|llvm::IRBuilder::CreateNUWAdd
_ZN4llvm9IRBuilder12CreateNUWMulEPNS_5ValueES2_RKNS_5TwineE|llvm::IRBuilder::CreateNUWMul
_ZN4llvm9IRBuilder12CreateNUWNegEPNS_5ValueERKNS_5TwineE|llvm::IRBuilder::CreateNUWNeg
_ZN4llvm9IRBuilder12CreateNUWSubEPNS_5ValueES2_RKNS_5TwineE|llvm::IRBuilder::CreateNUWSub
_ZN4llvm9IRBuilder9CreateNegEPNS_5ValueERKNS_5TwineEbb|llvm::IRBuilder::CreateNeg
_ZN4llvm9IRBuilder9CreateNotEPNS_5ValueERKNS_5TwineE|llvm::IRBuilder::CreateNot
_ZN4llvm9IRBuilder8CreateOrEPNS_5ValueES2_RKNS_5TwineE|llvm::IRBuilder::CreateOr
_ZN4llvm9IRBuilder9CreatePHIEPNS_4TypeEjRKNS_5TwineE|llvm::IRBuilder::CreatePHI
_ZN4llvm9IRBuilder35CreatePointerBitCastOrAddrSpaceCastEPNS_5ValueEPNS_4TypeERKNS_5TwineE|llvm::IRBuilder::CreatePointerBitCastOrAddrSpaceCast
_ZN4llvm9IRBuilder17CreatePointerCastEPNS_5ValueEPNS_4TypeERKNS_5TwineE|llvm::IRBuilder::CreatePointerCast
_ZN4llvm9IRBuilder13CreatePtrDiffEPNS_5ValueES2_RKNS_5TwineE|llvm::IRBuilder::CreatePtrDiff
_ZN4llvm9IRBuilder14CreatePtrToIntEPNS_5ValueEPNS_4TypeERKNS_5TwineE|llvm::IRBuilder::CreatePtrToInt
_ZN4llvm9IRBuilder12CreateResumeEPNS_5ValueE|llvm::IRBuilder::CreateResume
_ZN4llvm9IRBuilder9CreateRetEPNS_5ValueE|llvm::IRBuilder::CreateRet
_ZN4llvm9IRBuilder13CreateRetVoidEv|llvm::IRBuilder::CreateRetVoid
_ZN4llvm9IRBuilder10CreateSDivEPNS_5ValueES2_RKNS_5TwineEb|llvm::IRBuilder::CreateSDiv
_ZN4llvm9IRBuilder10CreateSExtEPNS_5ValueEPNS_4TypeERKNS_5TwineE|llvm::IRBuilder::CreateSExt
_ZN4llvm9IRBuilder19CreateSExtOrBitCastEPNS_5ValueEPNS_4TypeERKNS_5TwineE|llvm::IRBuilder::CreateSExtOrBitCast
_ZN4llvm9IRBuilder17CreateSExtOrTruncEPNS_5ValueEPNS_4TypeERKNS_5TwineE|llvm::IRBuilder::CreateSExtOrTrunc
_ZN4llvm9IRBuilder12CreateSIToFPEPNS_5ValueEPNS_4TypeERKNS_5TwineE|llvm::IRBuilder::CreateSIToFP
_ZN4llvm9IRBuilder10CreateSRemEPNS_5ValueES2_RKNS_5TwineE|llvm::IRBuilder::CreateSRem
_ZN4llvm9IRBuilder12CreateSelectEPNS_5ValueES2_S2_RKNS_5TwineEPNS_11InstructionE|llvm::IRBuilder::CreateSelect
_ZN4llvm9IRBuilder9CreateShlEPNS_5ValueES2_RKNS_5TwineEbb|llvm::IRBuilder::CreateShl
_ZN4llvm9IRBuilder19CreateShuffleVectorEPNS_5ValueES2_S2_RKNS_5TwineE|llvm::IRBuilder::CreateShuffleVector
_ZN4llvm9IRBuilder11CreateStoreEPNS_5ValueES2_b|llvm::IRBuilder::CreateStore
_ZN4llvm9IRBuilder15CreateStructGEPEPNS_4TypeEPNS_5ValueEjRKNS_5TwineE|llvm::IRBuilder::CreateStructGEP
_ZN4llvm9IRBuilder9CreateSubEPNS_5ValueES2_RKNS_5TwineEbb|llvm::IRBuilder::CreateSub
_ZN4llvm9IRBuilder12CreateSwitchEPNS_5ValueEPNS_10BasicBlockEjPNS_6MDNodeES6_|llvm::IRBuilder::CreateSwitch
_ZN4llvm9IRBuilder11CreateTruncEPNS_5ValueEPNS_4TypeERKNS_5TwineE|llvm::IRBuilder::CreateTrunc
_ZN4llvm9IRBuilder20CreateTruncOrBitCastEPNS_5ValueEPNS_4TypeERKNS_5TwineE|llvm::IRBuilder::CreateTruncOrBitCast
_ZN4llvm9IRBuilder10CreateUDivEPNS_5ValueES2_RKNS_5TwineEb|llvm::IRBuilder::CreateUDiv
_ZN4llvm9IRBuilder12CreateUIToFPEPNS_5ValueEPNS_4TypeERKNS_5TwineE|llvm::IRBuilder::CreateUIToFP
_ZN4llvm9IRBuilder10CreateURemEPNS_5ValueES2_RKNS_5TwineE|llvm::IRBuilder::CreateURem
_ZN4llvm9IRBuilder17CreateUnreachableEv|llvm::IRBuilder::CreateUnreachable
_ZN4llvm9IRBuilder11CreateVAArgEPNS_5ValueEPNS_4TypeERKNS_5TwineE|llvm::IRBuilder::CreateVAArg
_ZN4llvm9IRBuilder17CreateVectorSplatEjPNS_5ValueERKNS_5TwineE|llvm::IRBuilder::CreateVectorSplat
_ZN4llvm9IRBuilder9CreateXorEPNS_5ValueES2_RKNS_5TwineE|llvm::IRBuilder::CreateXor
_ZN4llvm9IRBuilder10CreateZExtEPNS_5ValueEPNS_4TypeERKNS_5TwineE|llvm::IRBuilder::CreateZExt
_ZN4llvm9IRBuilder19CreateZExtOrBitCastEPNS_5ValueEPNS_4TypeERKNS_5TwineE|llvm::IRBuilder::CreateZExtOrBitCast
_ZN4llvm9IRBuilder17CreateZExtOrTruncEPNS_5ValueEPNS_4TypeERKNS_5TwineE|llvm::IRBuilder::CreateZExtOrTrunc
_ZNK4llvm9IRBuilder6InsertEPT_RKNS_5TwineE|llvm::IRBuilder::Insert
_ZN4llvm9IRBuilder17addBranchMetadataEPT_PNS_6MDNodeES4_|llvm::IRBuilder::addBranchMetadata
_ZN4llvm9IRBuilder9getFolderEv|llvm::IRBuilder::getFolder
_ZN4llvm13IRBuilderBase19ClearInsertionPointEv|llvm::IRBuilderBase::ClearInsertionPoint
_ZN4llvm13IRBuilderBase34CreateElementUnorderedAtomicMemCpyEPNS_5ValueEjS2_jmjPNS_6MDNodeES4_S4_S4_|llvm::IRBuilderBase::CreateElementUnorderedAtomicMemCpy
_ZN4llvm13IRBuilderBase12CreateMaxNumEPNS_5ValueES2_RKNS_5TwineE|llvm::IRBuilderBase::CreateMaxNum
_ZN4llvm13IRBuilderBase12CreateMemCpyEPNS_5ValueES2_mjbPNS_6MDNodeES4_S4_S4_|llvm::IRBuilderBase::CreateMemCpy
_ZN4llvm13IRBuilderBase13CreateMemMoveEPNS_5ValueES2_mjbPNS_6MDNodeES4_S4_|llvm::IRBuilderBase::CreateMemMove
_ZN4llvm13IRBuilderBase12CreateMemSetEPNS_5ValueES2_mjbPNS_6MDNodeES4_S4_|llvm::IRBuilderBase::CreateMemSet
_ZN4llvm13IRBuilderBase12CreateMinNumEPNS_5ValueES2_RKNS_5TwineE|llvm::IRBuilderBase::CreateMinNum
_ZNK4llvm13IRBuilderBase14GetInsertBlockEv|llvm::IRBuilderBase::GetInsertBlock
_ZNK4llvm13IRBuilderBase14GetInsertPointEv|llvm::IRBuilderBase::GetInsertPoint
_ZN4llvm13IRBuilderBaseC1ERNS_11LLVMContextEPNS_6MDNodeENS_8ArrayRefINS_17OperandBundleDefTIPNS_5ValueEEEEE|llvm::IRBuilderBase::IRBuilderBase
_ZN4llvm13IRBuilderBase23SetCurrentDebugLocationENS_8DebugLocE|llvm::IRBuilderBase::SetCurrentDebugLocation
_ZN4llvm13IRBuilderBase14SetInsertPointEPNS_10BasicBlockE|llvm::IRBuilderBase::SetInsertPoint
_ZNK4llvm13IRBuilderBase20SetInstDebugLocationEPNS_11InstructionE|llvm::IRBuilderBase::SetInstDebugLocation
_ZN4llvm13IRBuilderBase18clearFastMathFlagsEv|llvm::IRBuilderBase::clearFastMathFlags
_ZNK4llvm13IRBuilderBase10getContextEv|llvm::IRBuilderBase::getContext
_ZNK4llvm13IRBuilderBase23getCurrentDebugLocationEv|llvm::IRBuilderBase::getCurrentDebugLocation
_ZNK4llvm13IRBuilderBase19getDefaultFPMathTagEv|llvm::IRBuilderBase::getDefaultFPMathTag
_ZN4llvm13IRBuilderBase11getDoubleTyEv|llvm::IRBuilderBase::getDoubleTy
_ZN4llvm13IRBuilderBase8getFalseEv|llvm::IRBuilderBase::getFalse
_ZNK4llvm13IRBuilderBase16getFastMathFlagsEv|llvm::IRBuilderBase::getFastMathFlags
_ZN4llvm13IRBuilderBase10getFloatTyEv|llvm::IRBuilderBase::getFloatTy
_ZN4llvm13IRBuilderBase9getHalfTyEv|llvm::IRBuilderBase::getHalfTy
_ZN4llvm13IRBuilderBase6getIntERKNS_5APIntE|llvm::IRBuilderBase::getInt
_ZN4llvm13IRBuilderBase7getInt1Eb|llvm::IRBuilderBase::getInt1
_ZN4llvm13IRBuilderBase11getInt128TyEv|llvm::IRBuilderBase::getInt128Ty
_ZN4llvm13IRBuilderBase8getInt16Et|llvm::IRBuilderBase::getInt16
_ZN4llvm13IRBuilderBase10getInt16TyEv|llvm::IRBuilderBase::getInt16Ty
_ZN4llvm13IRBuilderBase9getInt1TyEv|llvm::IRBuilderBase::getInt1Ty
_ZN4llvm13IRBuilderBase8getInt32Ej|llvm::IRBuilderBase::getInt32
_ZN4llvm13IRBuilderBase10getInt32TyEv|llvm::IRBuilderBase::getInt32Ty
_ZN4llvm13IRBuilderBase8getInt64Em|llvm::IRBuilderBase::getInt64
_ZN4llvm13IRBuilderBase10getInt64TyEv|llvm::IRBuilderBase::getInt64Ty
_ZN4llvm13IRBuilderBase7getInt8Eh|llvm::IRBuilderBase::getInt8
_ZN4llvm13IRBuilderBase12getInt8PtrTyEj|llvm::IRBuilderBase::getInt8PtrTy
_ZN4llvm13IRBuilderBase9getInt8TyEv|llvm::IRBuilderBase::getInt8Ty
_ZN4llvm13IRBuilderBase7getIntNEjm|llvm::IRBuilderBase::getIntN
_ZN4llvm13IRBuilderBase9getIntNTyEj|llvm::IRBuilderBase::getIntNTy
_ZN4llvm13IRBuilderBase11getIntPtrTyERKNS_10DataLayoutEj|llvm::IRBuilderBase::getIntPtrTy
_ZN4llvm13IRBuilderBase7getTrueEv|llvm::IRBuilderBase::getTrue
_ZN4llvm13IRBuilderBase9getVoidTyEv|llvm::IRBuilderBase::getVoidTy
_ZN4llvm13IRBuilderBase9restoreIPENS0_11InsertPointE|llvm::IRBuilderBase::restoreIP
_ZN4llvm13IRBuilderBase14saveAndClearIPEv|llvm::IRBuilderBase::saveAndClearIP
_ZNK4llvm13IRBuilderBase6saveIPEv|llvm::IRBuilderBase::saveIP
_ZN4llvm13IRBuilderBase19setDefaultFPMathTagEPNS_6MDNodeE|llvm::IRBuilderBase::setDefaultFPMathTag
_ZN4llvm13IRBuilderBase16setFastMathFlagsENS_13FastMathFlagsE|llvm::IRBuilderBase::setFastMathFlags
_ZN4llvm25IRBuilderCallbackInserterC1ESt8functionIFvPNS_11InstructionEEE|llvm::IRBuilderCallbackInserter::IRBuilderCallbackInserter
_ZNK4llvm25IRBuilderCallbackInserter12InsertHelperEPNS_11InstructionERKNS_5TwineEPNS_10BasicBlockENS_14ilist_iteratorINS_12ilist_detail12node_optionsI9269246|llvm::IRBuilderCallbackInserter::InsertHelper
_ZNK4llvm24IRBuilderDefaultInserter12InsertHelperEPNS_11InstructionERKNS_5TwineEPNS_10BasicBlockENS_14ilist_iteratorINS_12ilist_detail12node_optionsIS5024512|llvm::IRBuilderDefaultInserter::InsertHelper
